target datalayout = "e-m:e-p270:32:32-p271:32:32-p272:64:64-i64:64-i128:128-f80:128-n8:16:32:64-S128"
target triple = "x86_64-pc-linux-gnu"

%"class.pxrInternal_v0_24__pxrReserved__::GfMatrix4d" = type { %"class.pxrInternal_v0_24__pxrReserved__::GfMatrixData" }
%"class.pxrInternal_v0_24__pxrReserved__::GfMatrixData" = type { [16 x double] }

; Function Attrs: mustprogress nounwind uwtable
define linkonce_odr noundef ptr @_ZNK32pxrInternal_v0_24__pxrReserved__12GfMatrixDataIdLi4ELi4EEixEi(ptr noundef nonnull align 8 dereferenceable(128) %0, i32 noundef %1) #2 comdat align 2 {
  %3 = alloca ptr, align 8
  %4 = alloca i32, align 4
  store ptr %0, ptr %3, align 8
  store i32 %1, ptr %4, align 4
  %5 = load ptr, ptr %3, align 8
  %6 = getelementptr inbounds nuw %"class.pxrInternal_v0_24__pxrReserved__::GfMatrixData", ptr %5, i32 0, i32 0
  %7 = getelementptr inbounds [16 x double], ptr %6, i64 0, i64 0
  %8 = load i32, ptr %4, align 4
  %9 = mul nsw i32 %8, 4
  %10 = sext i32 %9 to i64
  %11 = getelementptr inbounds double, ptr %7, i64 %10
  ret ptr %11
}

; Function Attrs: mustprogress uwtable
define noundef zeroext i1 @_ZNK32pxrInternal_v0_24__pxrReserved__10GfMatrix4deqERKS0_(ptr noundef nonnull align 8 dereferenceable(128) %0, ptr noundef nonnull align 8 dereferenceable(128) %1) #0 align 2 {
  %3 = alloca ptr, align 8
  %4 = alloca ptr, align 8
  store ptr %0, ptr %3, align 8
  store ptr %1, ptr %4, align 8
  %5 = load ptr, ptr %3, align 8
  %6 = getelementptr inbounds nuw %"class.pxrInternal_v0_24__pxrReserved__::GfMatrix4d", ptr %5, i32 0, i32 0
  %7 = call noundef ptr @_ZNK32pxrInternal_v0_24__pxrReserved__12GfMatrixDataIdLi4ELi4EEixEi(ptr noundef nonnull align 8 dereferenceable(128) %6, i32 noundef 0)
  %8 = getelementptr inbounds double, ptr %7, i64 0
  %9 = load double, ptr %8, align 8
  %10 = load ptr, ptr %4, align 8
  %11 = getelementptr inbounds nuw %"class.pxrInternal_v0_24__pxrReserved__::GfMatrix4d", ptr %10, i32 0, i32 0
  %12 = call noundef ptr @_ZNK32pxrInternal_v0_24__pxrReserved__12GfMatrixDataIdLi4ELi4EEixEi(ptr noundef nonnull align 8 dereferenceable(128) %11, i32 noundef 0)
  %13 = getelementptr inbounds double, ptr %12, i64 0
  %14 = load double, ptr %13, align 8
  %15 = fcmp oeq double %9, %14
  br i1 %15, label %16, label %181

16:                                               ; preds = %2
  %17 = getelementptr inbounds nuw %"class.pxrInternal_v0_24__pxrReserved__::GfMatrix4d", ptr %5, i32 0, i32 0
  %18 = call noundef ptr @_ZNK32pxrInternal_v0_24__pxrReserved__12GfMatrixDataIdLi4ELi4EEixEi(ptr noundef nonnull align 8 dereferenceable(128) %17, i32 noundef 0)
  %19 = getelementptr inbounds double, ptr %18, i64 1
  %20 = load double, ptr %19, align 8
  %21 = load ptr, ptr %4, align 8
  %22 = getelementptr inbounds nuw %"class.pxrInternal_v0_24__pxrReserved__::GfMatrix4d", ptr %21, i32 0, i32 0
  %23 = call noundef ptr @_ZNK32pxrInternal_v0_24__pxrReserved__12GfMatrixDataIdLi4ELi4EEixEi(ptr noundef nonnull align 8 dereferenceable(128) %22, i32 noundef 0)
  %24 = getelementptr inbounds double, ptr %23, i64 1
  %25 = load double, ptr %24, align 8
  %26 = fcmp oeq double %20, %25
  br i1 %26, label %27, label %181

27:                                               ; preds = %16
  %28 = getelementptr inbounds nuw %"class.pxrInternal_v0_24__pxrReserved__::GfMatrix4d", ptr %5, i32 0, i32 0
  %29 = call noundef ptr @_ZNK32pxrInternal_v0_24__pxrReserved__12GfMatrixDataIdLi4ELi4EEixEi(ptr noundef nonnull align 8 dereferenceable(128) %28, i32 noundef 0)
  %30 = getelementptr inbounds double, ptr %29, i64 2
  %31 = load double, ptr %30, align 8
  %32 = load ptr, ptr %4, align 8
  %33 = getelementptr inbounds nuw %"class.pxrInternal_v0_24__pxrReserved__::GfMatrix4d", ptr %32, i32 0, i32 0
  %34 = call noundef ptr @_ZNK32pxrInternal_v0_24__pxrReserved__12GfMatrixDataIdLi4ELi4EEixEi(ptr noundef nonnull align 8 dereferenceable(128) %33, i32 noundef 0)
  %35 = getelementptr inbounds double, ptr %34, i64 2
  %36 = load double, ptr %35, align 8
  %37 = fcmp oeq double %31, %36
  br i1 %37, label %38, label %181

38:                                               ; preds = %27
  %39 = getelementptr inbounds nuw %"class.pxrInternal_v0_24__pxrReserved__::GfMatrix4d", ptr %5, i32 0, i32 0
  %40 = call noundef ptr @_ZNK32pxrInternal_v0_24__pxrReserved__12GfMatrixDataIdLi4ELi4EEixEi(ptr noundef nonnull align 8 dereferenceable(128) %39, i32 noundef 0)
  %41 = getelementptr inbounds double, ptr %40, i64 3
  %42 = load double, ptr %41, align 8
  %43 = load ptr, ptr %4, align 8
  %44 = getelementptr inbounds nuw %"class.pxrInternal_v0_24__pxrReserved__::GfMatrix4d", ptr %43, i32 0, i32 0
  %45 = call noundef ptr @_ZNK32pxrInternal_v0_24__pxrReserved__12GfMatrixDataIdLi4ELi4EEixEi(ptr noundef nonnull align 8 dereferenceable(128) %44, i32 noundef 0)
  %46 = getelementptr inbounds double, ptr %45, i64 3
  %47 = load double, ptr %46, align 8
  %48 = fcmp oeq double %42, %47
  br i1 %48, label %49, label %181

49:                                               ; preds = %38
  %50 = getelementptr inbounds nuw %"class.pxrInternal_v0_24__pxrReserved__::GfMatrix4d", ptr %5, i32 0, i32 0
  %51 = call noundef ptr @_ZNK32pxrInternal_v0_24__pxrReserved__12GfMatrixDataIdLi4ELi4EEixEi(ptr noundef nonnull align 8 dereferenceable(128) %50, i32 noundef 1)
  %52 = getelementptr inbounds double, ptr %51, i64 0
  %53 = load double, ptr %52, align 8
  %54 = load ptr, ptr %4, align 8
  %55 = getelementptr inbounds nuw %"class.pxrInternal_v0_24__pxrReserved__::GfMatrix4d", ptr %54, i32 0, i32 0
  %56 = call noundef ptr @_ZNK32pxrInternal_v0_24__pxrReserved__12GfMatrixDataIdLi4ELi4EEixEi(ptr noundef nonnull align 8 dereferenceable(128) %55, i32 noundef 1)
  %57 = getelementptr inbounds double, ptr %56, i64 0
  %58 = load double, ptr %57, align 8
  %59 = fcmp oeq double %53, %58
  br i1 %59, label %60, label %181

60:                                               ; preds = %49
  %61 = getelementptr inbounds nuw %"class.pxrInternal_v0_24__pxrReserved__::GfMatrix4d", ptr %5, i32 0, i32 0
  %62 = call noundef ptr @_ZNK32pxrInternal_v0_24__pxrReserved__12GfMatrixDataIdLi4ELi4EEixEi(ptr noundef nonnull align 8 dereferenceable(128) %61, i32 noundef 1)
  %63 = getelementptr inbounds double, ptr %62, i64 1
  %64 = load double, ptr %63, align 8
  %65 = load ptr, ptr %4, align 8
  %66 = getelementptr inbounds nuw %"class.pxrInternal_v0_24__pxrReserved__::GfMatrix4d", ptr %65, i32 0, i32 0
  %67 = call noundef ptr @_ZNK32pxrInternal_v0_24__pxrReserved__12GfMatrixDataIdLi4ELi4EEixEi(ptr noundef nonnull align 8 dereferenceable(128) %66, i32 noundef 1)
  %68 = getelementptr inbounds double, ptr %67, i64 1
  %69 = load double, ptr %68, align 8
  %70 = fcmp oeq double %64, %69
  br i1 %70, label %71, label %181

71:                                               ; preds = %60
  %72 = getelementptr inbounds nuw %"class.pxrInternal_v0_24__pxrReserved__::GfMatrix4d", ptr %5, i32 0, i32 0
  %73 = call noundef ptr @_ZNK32pxrInternal_v0_24__pxrReserved__12GfMatrixDataIdLi4ELi4EEixEi(ptr noundef nonnull align 8 dereferenceable(128) %72, i32 noundef 1)
  %74 = getelementptr inbounds double, ptr %73, i64 2
  %75 = load double, ptr %74, align 8
  %76 = load ptr, ptr %4, align 8
  %77 = getelementptr inbounds nuw %"class.pxrInternal_v0_24__pxrReserved__::GfMatrix4d", ptr %76, i32 0, i32 0
  %78 = call noundef ptr @_ZNK32pxrInternal_v0_24__pxrReserved__12GfMatrixDataIdLi4ELi4EEixEi(ptr noundef nonnull align 8 dereferenceable(128) %77, i32 noundef 1)
  %79 = getelementptr inbounds double, ptr %78, i64 2
  %80 = load double, ptr %79, align 8
  %81 = fcmp oeq double %75, %80
  br i1 %81, label %82, label %181

82:                                               ; preds = %71
  %83 = getelementptr inbounds nuw %"class.pxrInternal_v0_24__pxrReserved__::GfMatrix4d", ptr %5, i32 0, i32 0
  %84 = call noundef ptr @_ZNK32pxrInternal_v0_24__pxrReserved__12GfMatrixDataIdLi4ELi4EEixEi(ptr noundef nonnull align 8 dereferenceable(128) %83, i32 noundef 1)
  %85 = getelementptr inbounds double, ptr %84, i64 3
  %86 = load double, ptr %85, align 8
  %87 = load ptr, ptr %4, align 8
  %88 = getelementptr inbounds nuw %"class.pxrInternal_v0_24__pxrReserved__::GfMatrix4d", ptr %87, i32 0, i32 0
  %89 = call noundef ptr @_ZNK32pxrInternal_v0_24__pxrReserved__12GfMatrixDataIdLi4ELi4EEixEi(ptr noundef nonnull align 8 dereferenceable(128) %88, i32 noundef 1)
  %90 = getelementptr inbounds double, ptr %89, i64 3
  %91 = load double, ptr %90, align 8
  %92 = fcmp oeq double %86, %91
  br i1 %92, label %93, label %181

93:                                               ; preds = %82
  %94 = getelementptr inbounds nuw %"class.pxrInternal_v0_24__pxrReserved__::GfMatrix4d", ptr %5, i32 0, i32 0
  %95 = call noundef ptr @_ZNK32pxrInternal_v0_24__pxrReserved__12GfMatrixDataIdLi4ELi4EEixEi(ptr noundef nonnull align 8 dereferenceable(128) %94, i32 noundef 2)
  %96 = getelementptr inbounds double, ptr %95, i64 0
  %97 = load double, ptr %96, align 8
  %98 = load ptr, ptr %4, align 8
  %99 = getelementptr inbounds nuw %"class.pxrInternal_v0_24__pxrReserved__::GfMatrix4d", ptr %98, i32 0, i32 0
  %100 = call noundef ptr @_ZNK32pxrInternal_v0_24__pxrReserved__12GfMatrixDataIdLi4ELi4EEixEi(ptr noundef nonnull align 8 dereferenceable(128) %99, i32 noundef 2)
  %101 = getelementptr inbounds double, ptr %100, i64 0
  %102 = load double, ptr %101, align 8
  %103 = fcmp oeq double %97, %102
  br i1 %103, label %104, label %181

104:                                              ; preds = %93
  %105 = getelementptr inbounds nuw %"class.pxrInternal_v0_24__pxrReserved__::GfMatrix4d", ptr %5, i32 0, i32 0
  %106 = call noundef ptr @_ZNK32pxrInternal_v0_24__pxrReserved__12GfMatrixDataIdLi4ELi4EEixEi(ptr noundef nonnull align 8 dereferenceable(128) %105, i32 noundef 2)
  %107 = getelementptr inbounds double, ptr %106, i64 1
  %108 = load double, ptr %107, align 8
  %109 = load ptr, ptr %4, align 8
  %110 = getelementptr inbounds nuw %"class.pxrInternal_v0_24__pxrReserved__::GfMatrix4d", ptr %109, i32 0, i32 0
  %111 = call noundef ptr @_ZNK32pxrInternal_v0_24__pxrReserved__12GfMatrixDataIdLi4ELi4EEixEi(ptr noundef nonnull align 8 dereferenceable(128) %110, i32 noundef 2)
  %112 = getelementptr inbounds double, ptr %111, i64 1
  %113 = load double, ptr %112, align 8
  %114 = fcmp oeq double %108, %113
  br i1 %114, label %115, label %181

115:                                              ; preds = %104
  %116 = getelementptr inbounds nuw %"class.pxrInternal_v0_24__pxrReserved__::GfMatrix4d", ptr %5, i32 0, i32 0
  %117 = call noundef ptr @_ZNK32pxrInternal_v0_24__pxrReserved__12GfMatrixDataIdLi4ELi4EEixEi(ptr noundef nonnull align 8 dereferenceable(128) %116, i32 noundef 2)
  %118 = getelementptr inbounds double, ptr %117, i64 2
  %119 = load double, ptr %118, align 8
  %120 = load ptr, ptr %4, align 8
  %121 = getelementptr inbounds nuw %"class.pxrInternal_v0_24__pxrReserved__::GfMatrix4d", ptr %120, i32 0, i32 0
  %122 = call noundef ptr @_ZNK32pxrInternal_v0_24__pxrReserved__12GfMatrixDataIdLi4ELi4EEixEi(ptr noundef nonnull align 8 dereferenceable(128) %121, i32 noundef 2)
  %123 = getelementptr inbounds double, ptr %122, i64 2
  %124 = load double, ptr %123, align 8
  %125 = fcmp oeq double %119, %124
  br i1 %125, label %126, label %181

126:                                              ; preds = %115
  %127 = getelementptr inbounds nuw %"class.pxrInternal_v0_24__pxrReserved__::GfMatrix4d", ptr %5, i32 0, i32 0
  %128 = call noundef ptr @_ZNK32pxrInternal_v0_24__pxrReserved__12GfMatrixDataIdLi4ELi4EEixEi(ptr noundef nonnull align 8 dereferenceable(128) %127, i32 noundef 2)
  %129 = getelementptr inbounds double, ptr %128, i64 3
  %130 = load double, ptr %129, align 8
  %131 = load ptr, ptr %4, align 8
  %132 = getelementptr inbounds nuw %"class.pxrInternal_v0_24__pxrReserved__::GfMatrix4d", ptr %131, i32 0, i32 0
  %133 = call noundef ptr @_ZNK32pxrInternal_v0_24__pxrReserved__12GfMatrixDataIdLi4ELi4EEixEi(ptr noundef nonnull align 8 dereferenceable(128) %132, i32 noundef 2)
  %134 = getelementptr inbounds double, ptr %133, i64 3
  %135 = load double, ptr %134, align 8
  %136 = fcmp oeq double %130, %135
  br i1 %136, label %137, label %181

137:                                              ; preds = %126
  %138 = getelementptr inbounds nuw %"class.pxrInternal_v0_24__pxrReserved__::GfMatrix4d", ptr %5, i32 0, i32 0
  %139 = call noundef ptr @_ZNK32pxrInternal_v0_24__pxrReserved__12GfMatrixDataIdLi4ELi4EEixEi(ptr noundef nonnull align 8 dereferenceable(128) %138, i32 noundef 3)
  %140 = getelementptr inbounds double, ptr %139, i64 0
  %141 = load double, ptr %140, align 8
  %142 = load ptr, ptr %4, align 8
  %143 = getelementptr inbounds nuw %"class.pxrInternal_v0_24__pxrReserved__::GfMatrix4d", ptr %142, i32 0, i32 0
  %144 = call noundef ptr @_ZNK32pxrInternal_v0_24__pxrReserved__12GfMatrixDataIdLi4ELi4EEixEi(ptr noundef nonnull align 8 dereferenceable(128) %143, i32 noundef 3)
  %145 = getelementptr inbounds double, ptr %144, i64 0
  %146 = load double, ptr %145, align 8
  %147 = fcmp oeq double %141, %146
  br i1 %147, label %148, label %181

148:                                              ; preds = %137
  %149 = getelementptr inbounds nuw %"class.pxrInternal_v0_24__pxrReserved__::GfMatrix4d", ptr %5, i32 0, i32 0
  %150 = call noundef ptr @_ZNK32pxrInternal_v0_24__pxrReserved__12GfMatrixDataIdLi4ELi4EEixEi(ptr noundef nonnull align 8 dereferenceable(128) %149, i32 noundef 3)
  %151 = getelementptr inbounds double, ptr %150, i64 1
  %152 = load double, ptr %151, align 8
  %153 = load ptr, ptr %4, align 8
  %154 = getelementptr inbounds nuw %"class.pxrInternal_v0_24__pxrReserved__::GfMatrix4d", ptr %153, i32 0, i32 0
  %155 = call noundef ptr @_ZNK32pxrInternal_v0_24__pxrReserved__12GfMatrixDataIdLi4ELi4EEixEi(ptr noundef nonnull align 8 dereferenceable(128) %154, i32 noundef 3)
  %156 = getelementptr inbounds double, ptr %155, i64 1
  %157 = load double, ptr %156, align 8
  %158 = fcmp oeq double %152, %157
  br i1 %158, label %159, label %181

159:                                              ; preds = %148
  %160 = getelementptr inbounds nuw %"class.pxrInternal_v0_24__pxrReserved__::GfMatrix4d", ptr %5, i32 0, i32 0
  %161 = call noundef ptr @_ZNK32pxrInternal_v0_24__pxrReserved__12GfMatrixDataIdLi4ELi4EEixEi(ptr noundef nonnull align 8 dereferenceable(128) %160, i32 noundef 3)
  %162 = getelementptr inbounds double, ptr %161, i64 2
  %163 = load double, ptr %162, align 8
  %164 = load ptr, ptr %4, align 8
  %165 = getelementptr inbounds nuw %"class.pxrInternal_v0_24__pxrReserved__::GfMatrix4d", ptr %164, i32 0, i32 0
  %166 = call noundef ptr @_ZNK32pxrInternal_v0_24__pxrReserved__12GfMatrixDataIdLi4ELi4EEixEi(ptr noundef nonnull align 8 dereferenceable(128) %165, i32 noundef 3)
  %167 = getelementptr inbounds double, ptr %166, i64 2
  %168 = load double, ptr %167, align 8
  %169 = fcmp oeq double %163, %168
  br i1 %169, label %170, label %181

170:                                              ; preds = %159
  %171 = getelementptr inbounds nuw %"class.pxrInternal_v0_24__pxrReserved__::GfMatrix4d", ptr %5, i32 0, i32 0
  %172 = call noundef ptr @_ZNK32pxrInternal_v0_24__pxrReserved__12GfMatrixDataIdLi4ELi4EEixEi(ptr noundef nonnull align 8 dereferenceable(128) %171, i32 noundef 3)
  %173 = getelementptr inbounds double, ptr %172, i64 3
  %174 = load double, ptr %173, align 8
  %175 = load ptr, ptr %4, align 8
  %176 = getelementptr inbounds nuw %"class.pxrInternal_v0_24__pxrReserved__::GfMatrix4d", ptr %175, i32 0, i32 0
  %177 = call noundef ptr @_ZNK32pxrInternal_v0_24__pxrReserved__12GfMatrixDataIdLi4ELi4EEixEi(ptr noundef nonnull align 8 dereferenceable(128) %176, i32 noundef 3)
  %178 = getelementptr inbounds double, ptr %177, i64 3
  %179 = load double, ptr %178, align 8
  %180 = fcmp oeq double %174, %179
  br label %181

181:                                              ; preds = %170, %159, %148, %137, %126, %115, %104, %93, %82, %71, %60, %49, %38, %27, %16, %2
  %182 = phi i1 [ false, %159 ], [ false, %148 ], [ false, %137 ], [ false, %126 ], [ false, %115 ], [ false, %104 ], [ false, %93 ], [ false, %82 ], [ false, %71 ], [ false, %60 ], [ false, %49 ], [ false, %38 ], [ false, %27 ], [ false, %16 ], [ false, %2 ], [ %180, %170 ]
  ret i1 %182
}