; Function Attrs: mustprogress nofree norecurse nosync nounwind willreturn memory(argmem: read) uwtable
define noundef zeroext i1 @_ZNK32pxrInternal_v0_24__pxrReserved__10GfMatrix4deqERKS0_(ptr nocapture noundef nonnull readonly align 8 dereferenceable(128) %0, ptr nocapture noundef nonnull readonly align 8 dereferenceable(128) %1) local_unnamed_addr #6 align 2 {
  %3 = load double, ptr %0, align 8
  %4 = load double, ptr %1, align 8
  %5 = fcmp oeq double %3, %4
  br i1 %5, label %6, label %96

6:                                                ; preds = %2
  %7 = getelementptr inbounds i8, ptr %0, i64 8
  %8 = load double, ptr %7, align 8
  %9 = getelementptr inbounds i8, ptr %1, i64 8
  %10 = load double, ptr %9, align 8
  %11 = fcmp oeq double %8, %10
  br i1 %11, label %12, label %96

12:                                               ; preds = %6
  %13 = getelementptr inbounds i8, ptr %0, i64 16
  %14 = load double, ptr %13, align 8
  %15 = getelementptr inbounds i8, ptr %1, i64 16
  %16 = load double, ptr %15, align 8
  %17 = fcmp oeq double %14, %16
  br i1 %17, label %18, label %96

18:                                               ; preds = %12
  %19 = getelementptr inbounds i8, ptr %0, i64 24
  %20 = load double, ptr %19, align 8
  %21 = getelementptr inbounds i8, ptr %1, i64 24
  %22 = load double, ptr %21, align 8
  %23 = fcmp oeq double %20, %22
  br i1 %23, label %24, label %96

24:                                               ; preds = %18
  %25 = getelementptr inbounds i8, ptr %0, i64 32
  %26 = load double, ptr %25, align 8
  %27 = getelementptr inbounds i8, ptr %1, i64 32
  %28 = load double, ptr %27, align 8
  %29 = fcmp oeq double %26, %28
  br i1 %29, label %30, label %96

30:                                               ; preds = %24
  %31 = getelementptr inbounds i8, ptr %0, i64 40
  %32 = load double, ptr %31, align 8
  %33 = getelementptr inbounds i8, ptr %1, i64 40
  %34 = load double, ptr %33, align 8
  %35 = fcmp oeq double %32, %34
  br i1 %35, label %36, label %96

36:                                               ; preds = %30
  %37 = getelementptr inbounds i8, ptr %0, i64 48
  %38 = load double, ptr %37, align 8
  %39 = getelementptr inbounds i8, ptr %1, i64 48
  %40 = load double, ptr %39, align 8
  %41 = fcmp oeq double %38, %40
  br i1 %41, label %42, label %96

42:                                               ; preds = %36
  %43 = getelementptr inbounds i8, ptr %0, i64 56
  %44 = load double, ptr %43, align 8
  %45 = getelementptr inbounds i8, ptr %1, i64 56
  %46 = load double, ptr %45, align 8
  %47 = fcmp oeq double %44, %46
  br i1 %47, label %48, label %96

48:                                               ; preds = %42
  %49 = getelementptr inbounds i8, ptr %0, i64 64
  %50 = load double, ptr %49, align 8
  %51 = getelementptr inbounds i8, ptr %1, i64 64
  %52 = load double, ptr %51, align 8
  %53 = fcmp oeq double %50, %52
  br i1 %53, label %54, label %96

54:                                               ; preds = %48
  %55 = getelementptr inbounds i8, ptr %0, i64 72
  %56 = load double, ptr %55, align 8
  %57 = getelementptr inbounds i8, ptr %1, i64 72
  %58 = load double, ptr %57, align 8
  %59 = fcmp oeq double %56, %58
  br i1 %59, label %60, label %96

60:                                               ; preds = %54
  %61 = getelementptr inbounds i8, ptr %0, i64 80
  %62 = load double, ptr %61, align 8
  %63 = getelementptr inbounds i8, ptr %1, i64 80
  %64 = load double, ptr %63, align 8
  %65 = fcmp oeq double %62, %64
  br i1 %65, label %66, label %96

66:                                               ; preds = %60
  %67 = getelementptr inbounds i8, ptr %0, i64 88
  %68 = load double, ptr %67, align 8
  %69 = getelementptr inbounds i8, ptr %1, i64 88
  %70 = load double, ptr %69, align 8
  %71 = fcmp oeq double %68, %70
  br i1 %71, label %72, label %96

72:                                               ; preds = %66
  %73 = getelementptr inbounds i8, ptr %0, i64 96
  %74 = load double, ptr %73, align 8
  %75 = getelementptr inbounds i8, ptr %1, i64 96
  %76 = load double, ptr %75, align 8
  %77 = fcmp oeq double %74, %76
  br i1 %77, label %78, label %96

78:                                               ; preds = %72
  %79 = getelementptr inbounds i8, ptr %0, i64 104
  %80 = load double, ptr %79, align 8
  %81 = getelementptr inbounds i8, ptr %1, i64 104
  %82 = load double, ptr %81, align 8
  %83 = fcmp oeq double %80, %82
  br i1 %83, label %84, label %96

84:                                               ; preds = %78
  %85 = getelementptr inbounds i8, ptr %0, i64 112
  %86 = load double, ptr %85, align 8
  %87 = getelementptr inbounds i8, ptr %1, i64 112
  %88 = load double, ptr %87, align 8
  %89 = fcmp oeq double %86, %88
  br i1 %89, label %90, label %96

90:                                               ; preds = %84
  %91 = getelementptr inbounds i8, ptr %0, i64 120
  %92 = load double, ptr %91, align 8
  %93 = getelementptr inbounds i8, ptr %1, i64 120
  %94 = load double, ptr %93, align 8
  %95 = fcmp oeq double %92, %94
  br label %96

96:                                               ; preds = %90, %84, %78, %72, %66, %60, %54, %48, %42, %36, %30, %24, %18, %12, %6, %2
  %97 = phi i1 [ false, %84 ], [ false, %78 ], [ false, %72 ], [ false, %66 ], [ false, %60 ], [ false, %54 ], [ false, %48 ], [ false, %42 ], [ false, %36 ], [ false, %30 ], [ false, %24 ], [ false, %18 ], [ false, %12 ], [ false, %6 ], [ false, %2 ], [ %95, %90 ]
  ret i1 %97
}